target datalayout = "e-m:e-p270:32:32-p271:32:32-p272:64:64-i64:64-i128:128-f80:128-n8:16:32:64-S128"
target triple = "x86_64-pc-linux-gnu"

%struct.Hop_Obj_t_ = type { %union.anon, %union.anon.0, ptr, ptr, i32, i32 }
%union.anon = type { ptr }
%union.anon.0 = type { ptr }
%struct.Abc_Obj_t_ = type { ptr, ptr, i32, i32, %struct.Vec_Int_t_, %struct.Vec_Int_t_, %union.anon.1, %union.anon.2 }
%struct.Vec_Int_t_ = type { i32, i32, ptr }
%union.anon.1 = type { ptr }
%union.anon.2 = type { ptr }
%struct.Abc_Ntk_t_ = type { i32, i32, ptr, ptr, ptr, ptr, ptr, ptr, ptr, ptr, ptr, ptr, ptr, [11 x i32], i32, i32, i32, i32, ptr, i32, ptr, ptr, i32, i32, i32, double, i32, %struct.Vec_Int_t_, ptr, ptr, ptr, ptr, ptr, float, i32, ptr, ptr, ptr, ptr, ptr, ptr, ptr, ptr, ptr, ptr, ptr, ptr, ptr, ptr, ptr, ptr, ptr, ptr, ptr, ptr, ptr }
%struct.Hop_Man_t_ = type { ptr, ptr, ptr, ptr, %struct.Hop_Obj_t_, [6 x i32], i32, i32, ptr, i32, ptr, i32, i32, i32, ptr, ptr, ptr, i64, i64 }
%struct.Vec_Ptr_t_ = type { i32, i32, ptr }

; Function Attrs: nounwind uwtable
define internal i32 @Abc_LitNotCond(i32 noundef %0, i32 noundef %1) #0 {
  %3 = alloca i32, align 4
  %4 = alloca i32, align 4
  store i32 %0, ptr %3, align 4
  store i32 %1, ptr %4, align 4
  %5 = load i32, ptr %3, align 4
  %6 = load i32, ptr %4, align 4
  %7 = icmp sgt i32 %6, 0
  %8 = zext i1 %7 to i32
  %9 = xor i32 %5, %8
  ret i32 %9
}

; Function Attrs: nounwind uwtable
define internal ptr @Abc_ObjFanin(ptr noundef %0, i32 noundef %1) #0 {
  %3 = alloca ptr, align 8
  %4 = alloca i32, align 4
  store ptr %0, ptr %3, align 8
  store i32 %1, ptr %4, align 4
  %5 = load ptr, ptr %3, align 8
  %6 = getelementptr inbounds %struct.Abc_Obj_t_, ptr %5, i32 0, i32 0
  %7 = load ptr, ptr %6, align 8
  %8 = getelementptr inbounds %struct.Abc_Ntk_t_, ptr %7, i32 0, i32 5
  %9 = load ptr, ptr %8, align 8
  %10 = getelementptr inbounds %struct.Vec_Ptr_t_, ptr %9, i32 0, i32 2
  %11 = load ptr, ptr %10, align 8
  %12 = load ptr, ptr %3, align 8
  %13 = getelementptr inbounds %struct.Abc_Obj_t_, ptr %12, i32 0, i32 4
  %14 = getelementptr inbounds %struct.Vec_Int_t_, ptr %13, i32 0, i32 2
  %15 = load ptr, ptr %14, align 8
  %16 = load i32, ptr %4, align 4
  %17 = sext i32 %16 to i64
  %18 = getelementptr inbounds i32, ptr %15, i64 %17
  %19 = load i32, ptr %18, align 4
  %20 = sext i32 %19 to i64
  %21 = getelementptr inbounds ptr, ptr %11, i64 %20
  %22 = load ptr, ptr %21, align 8
  ret ptr %22
}

; Function Attrs: nounwind uwtable
define internal i32 @Abc_ObjFaninNum(ptr noundef %0) #0 {
  %2 = alloca ptr, align 8
  store ptr %0, ptr %2, align 8
  %3 = load ptr, ptr %2, align 8
  %4 = getelementptr inbounds %struct.Abc_Obj_t_, ptr %3, i32 0, i32 4
  %5 = getelementptr inbounds %struct.Vec_Int_t_, ptr %4, i32 0, i32 1
  %6 = load i32, ptr %5, align 4
  ret i32 %6
}

; Function Attrs: nounwind uwtable
define internal i32 @Hop_IsComplement(ptr noundef %0) #0 {
  %2 = alloca ptr, align 8
  store ptr %0, ptr %2, align 8
  %3 = load ptr, ptr %2, align 8
  %4 = ptrtoint ptr %3 to i64
  %5 = and i64 %4, 1
  %6 = trunc i64 %5 to i32
  ret i32 %6
}

; Function Attrs: nounwind uwtable
define internal ptr @Hop_ManConst1(ptr noundef %0) #0 {
  %2 = alloca ptr, align 8
  store ptr %0, ptr %2, align 8
  %3 = load ptr, ptr %2, align 8
  %4 = getelementptr inbounds %struct.Hop_Man_t_, ptr %3, i32 0, i32 3
  %5 = load ptr, ptr %4, align 8
  ret ptr %5
}

; Function Attrs: nounwind uwtable
define internal ptr @Hop_Regular(ptr noundef %0) #0 {
  %2 = alloca ptr, align 8
  store ptr %0, ptr %2, align 8
  %3 = load ptr, ptr %2, align 8
  %4 = ptrtoint ptr %3 to i64
  %5 = and i64 %4, -2
  %6 = inttoptr i64 %5 to ptr
  ret ptr %6
}

; Function Attrs: nounwind uwtable
define i32 @Abc_NtkTestTimNodeStrash(ptr noundef %0, ptr noundef %1) #0 {
  %3 = alloca i32, align 4
  %4 = alloca ptr, align 8
  %5 = alloca ptr, align 8
  %6 = alloca ptr, align 8
  %7 = alloca ptr, align 8
  %8 = alloca ptr, align 8
  %9 = alloca i32, align 4
  store ptr %0, ptr %4, align 8
  store ptr %1, ptr %5, align 8
  %10 = load ptr, ptr %5, align 8
  %11 = getelementptr inbounds %struct.Abc_Obj_t_, ptr %10, i32 0, i32 0
  %12 = load ptr, ptr %11, align 8
  %13 = getelementptr inbounds %struct.Abc_Ntk_t_, ptr %12, i32 0, i32 30
  %14 = load ptr, ptr %13, align 8
  store ptr %14, ptr %6, align 8
  %15 = load ptr, ptr %5, align 8
  %16 = getelementptr inbounds %struct.Abc_Obj_t_, ptr %15, i32 0, i32 6
  %17 = load ptr, ptr %16, align 8
  store ptr %17, ptr %7, align 8
  %18 = load ptr, ptr %5, align 8
  %19 = call i32 @Abc_NodeIsConst(ptr noundef %18)
  %20 = icmp ne i32 %19, 0
  br i1 %20, label %27, label %21

21:                                               ; preds = %2
  %22 = load ptr, ptr %7, align 8
  %23 = call ptr @Hop_Regular(ptr noundef %22)
  %24 = load ptr, ptr %6, align 8
  %25 = call ptr @Hop_ManConst1(ptr noundef %24)
  %26 = icmp eq ptr %23, %25
  br i1 %26, label %27, label %33

27:                                               ; preds = %21, %2
  %28 = load ptr, ptr %7, align 8
  %29 = call i32 @Hop_IsComplement(ptr noundef %28)
  %30 = icmp ne i32 %29, 0
  %31 = xor i1 %30, true
  %32 = zext i1 %31 to i32
  store i32 %32, ptr %3, align 4
  br label %69

33:                                               ; preds = %21
  store i32 0, ptr %9, align 4
  br label %34

34:                                               ; preds = %53, %33
  %35 = load i32, ptr %9, align 4
  %36 = load ptr, ptr %5, align 8
  %37 = call i32 @Abc_ObjFaninNum(ptr noundef %36)
  %38 = icmp slt i32 %35, %37
  br i1 %38, label %39, label %43

39:                                               ; preds = %34
  %40 = load ptr, ptr %5, align 8
  %41 = load i32, ptr %9, align 4
  %42 = call ptr @Abc_ObjFanin(ptr noundef %40, i32 noundef %41)
  store ptr %42, ptr %8, align 8
  br label %43

43:                                               ; preds = %39, %34
  %44 = phi i1 [ false, %34 ], [ true, %39 ]
  br i1 %44, label %45, label %56

45:                                               ; preds = %43
  %46 = load ptr, ptr %8, align 8
  %47 = getelementptr inbounds %struct.Abc_Obj_t_, ptr %46, i32 0, i32 7
  %48 = load i32, ptr %47, align 8
  %49 = load ptr, ptr %6, align 8
  %50 = load i32, ptr %9, align 4
  %51 = call ptr @Hop_IthVar(ptr noundef %49, i32 noundef %50)
  %52 = getelementptr inbounds %struct.Hop_Obj_t_, ptr %51, i32 0, i32 0
  store i32 %48, ptr %52, align 8
  br label %53

53:                                               ; preds = %45
  %54 = load i32, ptr %9, align 4
  %55 = add nsw i32 %54, 1
  store i32 %55, ptr %9, align 4
  br label %34, !llvm.loop !4

56:                                               ; preds = %43
  %57 = load ptr, ptr %4, align 8
  %58 = load ptr, ptr %7, align 8
  %59 = call ptr @Hop_Regular(ptr noundef %58)
  call void @Abc_NtkTestTimNodeStrash_rec(ptr noundef %57, ptr noundef %59)
  %60 = load ptr, ptr %7, align 8
  %61 = call ptr @Hop_Regular(ptr noundef %60)
  call void @Hop_ConeUnmark_rec(ptr noundef %61)
  %62 = load ptr, ptr %7, align 8
  %63 = call ptr @Hop_Regular(ptr noundef %62)
  %64 = getelementptr inbounds %struct.Hop_Obj_t_, ptr %63, i32 0, i32 0
  %65 = load i32, ptr %64, align 8
  %66 = load ptr, ptr %7, align 8
  %67 = call i32 @Hop_IsComplement(ptr noundef %66)
  %68 = call i32 @Abc_LitNotCond(i32 noundef %65, i32 noundef %67)
  store i32 %68, ptr %3, align 4
  br label %69

69:                                               ; preds = %56, %27
  %70 = load i32, ptr %3, align 4
  ret i32 %70
}