; Function Attrs: nounwind uwtable
define i32 @Abc_NtkTestTimNodeStrash(ptr noundef %0, ptr noundef %1) local_unnamed_addr #0 {
  %3 = load ptr, ptr %1, align 8
  %4 = getelementptr inbounds nuw i8, ptr %3, i64 256
  %5 = load ptr, ptr %4, align 8
  %6 = getelementptr inbounds nuw i8, ptr %1, i64 56
  %7 = load ptr, ptr %6, align 8
  %8 = tail call i32 @Abc_NodeIsConst(ptr noundef nonnull %1) #11
  %.not = icmp eq i32 %8, 0
  %9 = ptrtoint ptr %7 to i64
  br i1 %.not, label %10, label %._crit_edge

10:                                               ; preds = %2
  %11 = and i64 %9, -2
  %12 = inttoptr i64 %11 to ptr
  %13 = getelementptr i8, ptr %5, i64 24
  %.val = load ptr, ptr %13, align 8
  %14 = icmp eq ptr %.val, %12
  br i1 %14, label %._crit_edge, label %.preheader

.preheader:                                       ; preds = %10
  %15 = getelementptr i8, ptr %1, i64 28
  %.val2124 = load i32, ptr %15, align 4
  %16 = icmp sgt i32 %.val2124, 0
  br i1 %16, label %.lr.ph, label %.critedge

.lr.ph:                                           ; preds = %.preheader
  %17 = getelementptr i8, ptr %1, i64 32
  br label %21

._crit_edge:                                      ; preds = %2, %10
  %18 = trunc i64 %9 to i32
  %19 = and i32 %18, 1
  %20 = xor i32 %19, 1
  br label %39

21:                                               ; preds = %.lr.ph, %21
  %indvars.iv = phi i64 [ 0, %.lr.ph ], [ %indvars.iv.next, %21 ]
  %.val22 = load ptr, ptr %1, align 8
  %.val23 = load ptr, ptr %17, align 8
  %22 = getelementptr i8, ptr %.val22, i64 32
  %.val22.val = load ptr, ptr %22, align 8
  %23 = getelementptr i8, ptr %.val22.val, i64 8
  %.val22.val.val = load ptr, ptr %23, align 8
  %24 = getelementptr inbounds nuw i32, ptr %.val23, i64 %indvars.iv
  %25 = load i32, ptr %24, align 4
  %26 = sext i32 %25 to i64
  %27 = getelementptr inbounds ptr, ptr %.val22.val.val, i64 %26
  %28 = load ptr, ptr %27, align 8
  %29 = getelementptr inbounds nuw i8, ptr %28, i64 64
  %30 = load i32, ptr %29, align 8
  %31 = trunc nuw nsw i64 %indvars.iv to i32
  %32 = tail call ptr @Hop_IthVar(ptr noundef %5, i32 noundef %31) #11
  store i32 %30, ptr %32, align 8
  %indvars.iv.next = add nuw nsw i64 %indvars.iv, 1
  %.val21 = load i32, ptr %15, align 4
  %33 = sext i32 %.val21 to i64
  %34 = icmp slt i64 %indvars.iv.next, %33
  br i1 %34, label %21, label %.critedge, !llvm.loop !4

.critedge:                                        ; preds = %21, %.preheader
  tail call void @Abc_NtkTestTimNodeStrash_rec(ptr noundef %0, ptr noundef %12)
  tail call void @Hop_ConeUnmark_rec(ptr noundef %12) #11
  %35 = load i32, ptr %12, align 8
  %36 = trunc i64 %9 to i32
  %37 = and i32 %36, 1
  %38 = xor i32 %35, %37
  br label %39

39:                                               ; preds = %.critedge, %._crit_edge
  %.019 = phi i32 [ %20, %._crit_edge ], [ %38, %.critedge ]
  ret i32 %.019
}